#include <math.h>
#include <stdio.h>
#include <stdlib.h>
#include <string.h>


int main()
{
	int n,age[100],i,j;
	char id[100][11],str[11];
	scanf("%d",&n);
	for(i=0;i<n;i++)
	{
		scanf("%s%d",id[i],&age[i]);
	}
	for(i=110;i>=60;i--)
	{
		for(j=0;j<n;j++)
		{
			if(age[j]==i)
			{
				printf("%s\n",id[j]);
				age[j]=0;
			}
		}
	}
	for(i=0;i<n;i++)
	{
		if(age[i]!=0)
			printf("%s\n",id[i]);	
	}
	return 0;
}
