; ModuleID = '9/88.c'
source_filename = "9/88.c"
target datalayout = "e-m:e-p270:32:32-p271:32:32-p272:64:64-i64:64-f80:128-n8:16:32:64-S128"
target triple = "x86_64-pc-linux-gnu"

@.str = private unnamed_addr constant [3 x i8] c"%d\00", align 1
@.str.1 = private unnamed_addr constant [5 x i8] c"%s%d\00", align 1
@.str.2 = private unnamed_addr constant [4 x i8] c"%s\0A\00", align 1

; Function Attrs: noinline nounwind uwtable
define dso_local i32 @main() #0 {
  %1 = alloca i32, align 4
  %2 = alloca i32, align 4
  %3 = alloca [100 x i32], align 16
  %4 = alloca i32, align 4
  %5 = alloca i32, align 4
  %6 = alloca [100 x [11 x i8]], align 16
  %7 = alloca [11 x i8], align 1
  store i32 0, i32* %1, align 4
  %8 = call i32 (i8*, ...) @__isoc99_scanf(i8* getelementptr inbounds ([3 x i8], [3 x i8]* @.str, i64 0, i64 0), i32* %2)
  store i32 0, i32* %4, align 4
  br label %9

9:                                                ; preds = %22, %0
  %10 = load i32, i32* %4, align 4
  %11 = load i32, i32* %2, align 4
  %12 = icmp slt i32 %10, %11
  br i1 %12, label %13, label %25

13:                                               ; preds = %9
  %14 = load i32, i32* %4, align 4
  %15 = sext i32 %14 to i64
  %16 = getelementptr inbounds [100 x [11 x i8]], [100 x [11 x i8]]* %6, i64 0, i64 %15
  %17 = getelementptr inbounds [11 x i8], [11 x i8]* %16, i64 0, i64 0
  %18 = load i32, i32* %4, align 4
  %19 = sext i32 %18 to i64
  %20 = getelementptr inbounds [100 x i32], [100 x i32]* %3, i64 0, i64 %19
  %21 = call i32 (i8*, ...) @__isoc99_scanf(i8* getelementptr inbounds ([5 x i8], [5 x i8]* @.str.1, i64 0, i64 0), i8* %17, i32* %20)
  br label %22

22:                                               ; preds = %13
  %23 = load i32, i32* %4, align 4
  %24 = add nsw i32 %23, 1
  store i32 %24, i32* %4, align 4
  br label %9

25:                                               ; preds = %9
  store i32 110, i32* %4, align 4
  br label %26

26:                                               ; preds = %55, %25
  %27 = load i32, i32* %4, align 4
  %28 = icmp sge i32 %27, 60
  br i1 %28, label %29, label %58

29:                                               ; preds = %26
  store i32 0, i32* %5, align 4
  br label %30

30:                                               ; preds = %51, %29
  %31 = load i32, i32* %5, align 4
  %32 = load i32, i32* %2, align 4
  %33 = icmp slt i32 %31, %32
  br i1 %33, label %34, label %54

34:                                               ; preds = %30
  %35 = load i32, i32* %5, align 4
  %36 = sext i32 %35 to i64
  %37 = getelementptr inbounds [100 x i32], [100 x i32]* %3, i64 0, i64 %36
  %38 = load i32, i32* %37, align 4
  %39 = load i32, i32* %4, align 4
  %40 = icmp eq i32 %38, %39
  br i1 %40, label %41, label %50

41:                                               ; preds = %34
  %42 = load i32, i32* %5, align 4
  %43 = sext i32 %42 to i64
  %44 = getelementptr inbounds [100 x [11 x i8]], [100 x [11 x i8]]* %6, i64 0, i64 %43
  %45 = getelementptr inbounds [11 x i8], [11 x i8]* %44, i64 0, i64 0
  %46 = call i32 (i8*, ...) @printf(i8* getelementptr inbounds ([4 x i8], [4 x i8]* @.str.2, i64 0, i64 0), i8* %45)
  %47 = load i32, i32* %5, align 4
  %48 = sext i32 %47 to i64
  %49 = getelementptr inbounds [100 x i32], [100 x i32]* %3, i64 0, i64 %48
  store i32 0, i32* %49, align 4
  br label %50

50:                                               ; preds = %41, %34
  br label %51

51:                                               ; preds = %50
  %52 = load i32, i32* %5, align 4
  %53 = add nsw i32 %52, 1
  store i32 %53, i32* %5, align 4
  br label %30

54:                                               ; preds = %30
  br label %55

55:                                               ; preds = %54
  %56 = load i32, i32* %4, align 4
  %57 = add nsw i32 %56, -1
  store i32 %57, i32* %4, align 4
  br label %26

58:                                               ; preds = %26
  store i32 0, i32* %4, align 4
  br label %59

59:                                               ; preds = %76, %58
  %60 = load i32, i32* %4, align 4
  %61 = load i32, i32* %2, align 4
  %62 = icmp slt i32 %60, %61
  br i1 %62, label %63, label %79

63:                                               ; preds = %59
  %64 = load i32, i32* %4, align 4
  %65 = sext i32 %64 to i64
  %66 = getelementptr inbounds [100 x i32], [100 x i32]* %3, i64 0, i64 %65
  %67 = load i32, i32* %66, align 4
  %68 = icmp ne i32 %67, 0
  br i1 %68, label %69, label %75

69:                                               ; preds = %63
  %70 = load i32, i32* %4, align 4
  %71 = sext i32 %70 to i64
  %72 = getelementptr inbounds [100 x [11 x i8]], [100 x [11 x i8]]* %6, i64 0, i64 %71
  %73 = getelementptr inbounds [11 x i8], [11 x i8]* %72, i64 0, i64 0
  %74 = call i32 (i8*, ...) @printf(i8* getelementptr inbounds ([4 x i8], [4 x i8]* @.str.2, i64 0, i64 0), i8* %73)
  br label %75

75:                                               ; preds = %69, %63
  br label %76

76:                                               ; preds = %75
  %77 = load i32, i32* %4, align 4
  %78 = add nsw i32 %77, 1
  store i32 %78, i32* %4, align 4
  br label %59

79:                                               ; preds = %59
  ret i32 0
}

declare dso_local i32 @__isoc99_scanf(i8*, ...) #1

declare dso_local i32 @printf(i8*, ...) #1


!llvm.module.flags = !{!0}
!llvm.ident = !{!1}

!0 = !{i32 1, !"wchar_size", i32 4}
!1 = !{!"clang version 10.0.0-4ubuntu1 "}
