; ModuleID = 'source-C-CXX/8/88.c'
source_filename = "source-C-CXX/8/88.c"
target datalayout = "e-m:e-p270:32:32-p271:32:32-p272:64:64-i64:64-f80:128-n8:16:32:64-S128"
target triple = "x86_64-pc-linux-gnu"

@.str = private unnamed_addr constant [3 x i8] c"%d\00", align 1
@.str.1 = private unnamed_addr constant [5 x i8] c"%s%d\00", align 1

; Function Attrs: nofree nounwind sspstrong uwtable
define dso_local i32 @main() local_unnamed_addr #0 {
  %1 = alloca i32, align 4
  %2 = alloca [100 x i32], align 16
  %3 = alloca [100 x [11 x i8]], align 16
  %4 = bitcast i32* %1 to i8*
  call void @llvm.lifetime.start.p0i8(i64 4, i8* nonnull %4) #4
  %5 = bitcast [100 x i32]* %2 to i8*
  call void @llvm.lifetime.start.p0i8(i64 400, i8* nonnull %5) #4
  %6 = getelementptr inbounds [100 x [11 x i8]], [100 x [11 x i8]]* %3, i64 0, i64 0, i64 0
  call void @llvm.lifetime.start.p0i8(i64 1100, i8* nonnull %6) #4
  %7 = call i32 (i8*, ...) @__isoc99_scanf(i8* getelementptr inbounds ([3 x i8], [3 x i8]* @.str, i64 0, i64 0), i32* nonnull %1)
  %8 = load i32, i32* %1, align 4, !tbaa !5
  %9 = icmp sgt i32 %8, 0
  br i1 %9, label %12, label %63

10:                                               ; preds = %12
  %11 = icmp sgt i32 %18, 0
  br i1 %11, label %21, label %63

12:                                               ; preds = %0, %12
  %13 = phi i64 [ %17, %12 ], [ 0, %0 ]
  %14 = getelementptr inbounds [100 x [11 x i8]], [100 x [11 x i8]]* %3, i64 0, i64 %13, i64 0
  %15 = getelementptr inbounds [100 x i32], [100 x i32]* %2, i64 0, i64 %13
  %16 = call i32 (i8*, ...) @__isoc99_scanf(i8* getelementptr inbounds ([5 x i8], [5 x i8]* @.str.1, i64 0, i64 0), i8* nonnull %14, i32* nonnull %15)
  %17 = add nuw nsw i64 %13, 1
  %18 = load i32, i32* %1, align 4, !tbaa !5
  %19 = sext i32 %18 to i64
  %20 = icmp slt i64 %17, %19
  br i1 %20, label %12, label %10, !llvm.loop !9

21:                                               ; preds = %10, %43
  %22 = phi i32 [ %44, %43 ], [ %18, %10 ]
  %23 = phi i32 [ %45, %43 ], [ %18, %10 ]
  %24 = phi i32 [ %46, %43 ], [ 110, %10 ]
  %25 = icmp sgt i32 %23, 0
  br i1 %25, label %28, label %43

26:                                               ; preds = %43
  %27 = icmp sgt i32 %44, 0
  br i1 %27, label %48, label %63

28:                                               ; preds = %21, %38
  %29 = phi i32 [ %39, %38 ], [ %22, %21 ]
  %30 = phi i64 [ %40, %38 ], [ 0, %21 ]
  %31 = getelementptr inbounds [100 x i32], [100 x i32]* %2, i64 0, i64 %30
  %32 = load i32, i32* %31, align 4, !tbaa !5
  %33 = icmp eq i32 %32, %24
  br i1 %33, label %34, label %38

34:                                               ; preds = %28
  %35 = getelementptr inbounds [100 x [11 x i8]], [100 x [11 x i8]]* %3, i64 0, i64 %30, i64 0
  %36 = call i32 @puts(i8* nonnull %35)
  store i32 0, i32* %31, align 4, !tbaa !5
  %37 = load i32, i32* %1, align 4, !tbaa !5
  br label %38

38:                                               ; preds = %28, %34
  %39 = phi i32 [ %29, %28 ], [ %37, %34 ]
  %40 = add nuw nsw i64 %30, 1
  %41 = sext i32 %39 to i64
  %42 = icmp slt i64 %40, %41
  br i1 %42, label %28, label %43, !llvm.loop !11

43:                                               ; preds = %38, %21
  %44 = phi i32 [ %22, %21 ], [ %39, %38 ]
  %45 = phi i32 [ %23, %21 ], [ %39, %38 ]
  %46 = add nsw i32 %24, -1
  %47 = icmp ugt i32 %24, 60
  br i1 %47, label %21, label %26, !llvm.loop !12

48:                                               ; preds = %26, %58
  %49 = phi i32 [ %59, %58 ], [ %44, %26 ]
  %50 = phi i64 [ %60, %58 ], [ 0, %26 ]
  %51 = getelementptr inbounds [100 x i32], [100 x i32]* %2, i64 0, i64 %50
  %52 = load i32, i32* %51, align 4, !tbaa !5
  %53 = icmp eq i32 %52, 0
  br i1 %53, label %58, label %54

54:                                               ; preds = %48
  %55 = getelementptr inbounds [100 x [11 x i8]], [100 x [11 x i8]]* %3, i64 0, i64 %50, i64 0
  %56 = call i32 @puts(i8* nonnull %55)
  %57 = load i32, i32* %1, align 4, !tbaa !5
  br label %58

58:                                               ; preds = %48, %54
  %59 = phi i32 [ %49, %48 ], [ %57, %54 ]
  %60 = add nuw nsw i64 %50, 1
  %61 = sext i32 %59 to i64
  %62 = icmp slt i64 %60, %61
  br i1 %62, label %48, label %63, !llvm.loop !14

63:                                               ; preds = %58, %0, %10, %26
  call void @llvm.lifetime.end.p0i8(i64 1100, i8* nonnull %6) #4
  call void @llvm.lifetime.end.p0i8(i64 400, i8* nonnull %5) #4
  call void @llvm.lifetime.end.p0i8(i64 4, i8* nonnull %4) #4
  ret i32 0
}

; Function Attrs: argmemonly mustprogress nofree nosync nounwind willreturn
declare void @llvm.lifetime.start.p0i8(i64 immarg, i8* nocapture) #1

; Function Attrs: nofree nounwind
declare noundef i32 @__isoc99_scanf(i8* nocapture noundef readonly, ...) local_unnamed_addr #2

; Function Attrs: argmemonly mustprogress nofree nosync nounwind willreturn
declare void @llvm.lifetime.end.p0i8(i64 immarg, i8* nocapture) #1

; Function Attrs: nofree nounwind
declare noundef i32 @puts(i8* nocapture noundef readonly) local_unnamed_addr #3


!llvm.module.flags = !{!0, !1, !2, !3}
!llvm.ident = !{!4}

!0 = !{i32 1, !"wchar_size", i32 4}
!1 = !{i32 7, !"PIC Level", i32 2}
!2 = !{i32 7, !"PIE Level", i32 2}
!3 = !{i32 7, !"uwtable", i32 1}
!4 = !{!"clang version 13.0.0"}
!5 = !{!6, !6, i64 0}
!6 = !{!"int", !7, i64 0}
!7 = !{!"omnipotent char", !8, i64 0}
!8 = !{!"Simple C/C++ TBAA"}
!9 = distinct !{!9, !10}
!10 = !{!"llvm.loop.mustprogress"}
!11 = distinct !{!11, !10}
!12 = distinct !{!12, !10, !13}
!13 = !{!"llvm.loop.unswitch.partial.disable"}
!14 = distinct !{!14, !10}
